target datalayout = "e-m:e-p270:32:32-p271:32:32-p272:64:64-i64:64-i128:128-f80:128-n8:16:32:64-S128"
target triple = "x86_64-pc-linux-gnu"

%"struct.c4::srcloc" = type { ptr, i32 }

@.str = private unnamed_addr constant [128 x i8] c"generated/home/dtcxzyw/WorkSpace/Projects/compilers/llvm-opt-benchmark/bench/jsonnet/jsonnet/third_party/rapidyaml/ryml_all.hpp\00", align 1
@.str.4 = private unnamed_addr constant [90 x i8] c"The alignment argument %zu was not a power of two, or was not a multiple of sizeof(void*)\00", align 1
@.str.5 = private unnamed_addr constant [93 x i8] c"There was insufficient memory to fulfill the allocation request of %zu bytes (alignment=%lu)\00", align 1
@_ZN2c4L13s_error_flagsE = internal global i32 15, align 4

; Function Attrs: mustprogress nounwind uwtable
define noundef i32 @_ZN2c415get_error_flagsEv() #0 {
  %1 = load i32, ptr @_ZN2c4L13s_error_flagsE, align 4, !tbaa !32
  ret i32 %1
}

; Function Attrs: mustprogress uwtable
define noundef ptr @_ZN2c46detail11aalloc_implEmm(i64 noundef %0, i64 noundef %1) #1 {
  %3 = alloca ptr, align 8
  %4 = alloca i64, align 8
  %5 = alloca i64, align 8
  %6 = alloca ptr, align 8
  %7 = alloca i64, align 8
  %8 = alloca i32, align 4
  %9 = alloca %"struct.c4::srcloc", align 8
  %10 = alloca %"struct.c4::srcloc", align 8
  %11 = alloca i32, align 4
  store i64 %0, ptr %4, align 8, !tbaa !15
  store i64 %1, ptr %5, align 8, !tbaa !15
  call void @llvm.lifetime.start.p0(i64 8, ptr %6) #25
  call void @llvm.lifetime.start.p0(i64 8, ptr %7) #25
  %12 = load i64, ptr %5, align 8, !tbaa !15
  store i64 %12, ptr %7, align 8, !tbaa !15
  %13 = load i64, ptr %5, align 8, !tbaa !15
  %14 = icmp ult i64 %13, 8
  %15 = zext i1 %14 to i64
  %16 = call i64 @llvm.expect.i64(i64 %15, i64 0)
  %17 = icmp ne i64 %16, 0
  br i1 %17, label %18, label %19

18:                                               ; preds = %2
  store i64 8, ptr %7, align 8, !tbaa !15
  br label %19

19:                                               ; preds = %18, %2
  call void @llvm.lifetime.start.p0(i64 4, ptr %8) #25
  %20 = load i64, ptr %7, align 8, !tbaa !15
  %21 = load i64, ptr %4, align 8, !tbaa !15
  %22 = call i32 @posix_memalign(ptr noundef %6, i64 noundef %20, i64 noundef %21) #25
  store i32 %22, ptr %8, align 4, !tbaa !32
  %23 = load i32, ptr %8, align 4, !tbaa !32
  %24 = sext i32 %23 to i64
  %25 = call i64 @llvm.expect.i64(i64 %24, i64 0)
  %26 = icmp ne i64 %25, 0
  br i1 %26, label %27, label %68

27:                                               ; preds = %19
  %28 = load i32, ptr %8, align 4, !tbaa !32
  %29 = icmp eq i32 %28, 22
  br i1 %29, label %30, label %46

30:                                               ; preds = %27
  br label %31

31:                                               ; preds = %30
  %32 = call noundef i32 @_ZN2c415get_error_flagsEv()
  %33 = and i32 %32, 1
  %34 = icmp ne i32 %33, 0
  br i1 %34, label %35, label %36

35:                                               ; preds = %31
  br label %36

36:                                               ; preds = %35, %31
  %37 = getelementptr inbounds nuw %"struct.c4::srcloc", ptr %9, i32 0, i32 0
  store ptr @.str, ptr %37, align 8, !tbaa !21
  %38 = getelementptr inbounds nuw %"struct.c4::srcloc", ptr %9, i32 0, i32 1
  store i32 17355, ptr %38, align 8, !tbaa !24
  %39 = load i64, ptr %5, align 8, !tbaa !15
  %40 = getelementptr inbounds nuw { ptr, i32 }, ptr %9, i32 0, i32 0
  %41 = load ptr, ptr %40, align 8
  %42 = getelementptr inbounds nuw { ptr, i32 }, ptr %9, i32 0, i32 1
  %43 = load i32, ptr %42, align 8
  call void (ptr, i32, ptr, ...) @_ZN2c412handle_errorENS_6srclocEPKcz(ptr %41, i32 %43, ptr noundef @.str.4, i64 noundef %39)
  br label %44

44:                                               ; preds = %36
  br label %45

45:                                               ; preds = %44
  br label %67

46:                                               ; preds = %27
  %47 = load i32, ptr %8, align 4, !tbaa !32
  %48 = icmp eq i32 %47, 12
  br i1 %48, label %49, label %66

49:                                               ; preds = %46
  br label %50

50:                                               ; preds = %49
  %51 = call noundef i32 @_ZN2c415get_error_flagsEv()
  %52 = and i32 %51, 1
  %53 = icmp ne i32 %52, 0
  br i1 %53, label %54, label %55

54:                                               ; preds = %50
  br label %55

55:                                               ; preds = %54, %50
  %56 = getelementptr inbounds nuw %"struct.c4::srcloc", ptr %10, i32 0, i32 0
  store ptr @.str, ptr %56, align 8, !tbaa !21
  %57 = getelementptr inbounds nuw %"struct.c4::srcloc", ptr %10, i32 0, i32 1
  store i32 17360, ptr %57, align 8, !tbaa !24
  %58 = load i64, ptr %4, align 8, !tbaa !15
  %59 = load i64, ptr %4, align 8, !tbaa !15
  %60 = getelementptr inbounds nuw { ptr, i32 }, ptr %10, i32 0, i32 0
  %61 = load ptr, ptr %60, align 8
  %62 = getelementptr inbounds nuw { ptr, i32 }, ptr %10, i32 0, i32 1
  %63 = load i32, ptr %62, align 8
  call void (ptr, i32, ptr, ...) @_ZN2c412handle_errorENS_6srclocEPKcz(ptr %61, i32 %63, ptr noundef @.str.5, i64 noundef %58, i64 noundef %59)
  br label %64

64:                                               ; preds = %55
  br label %65

65:                                               ; preds = %64
  br label %66

66:                                               ; preds = %65, %46
  br label %67

67:                                               ; preds = %66, %45
  store ptr null, ptr %3, align 8
  store i32 1, ptr %11, align 4
  br label %70

68:                                               ; preds = %19
  %69 = load ptr, ptr %6, align 8, !tbaa !13
  store ptr %69, ptr %3, align 8
  store i32 1, ptr %11, align 4
  br label %70

70:                                               ; preds = %68, %67
  call void @llvm.lifetime.end.p0(i64 4, ptr %8) #25
  call void @llvm.lifetime.end.p0(i64 8, ptr %7) #25
  call void @llvm.lifetime.end.p0(i64 8, ptr %6) #25
  %71 = load ptr, ptr %3, align 8
  ret ptr %71
}