; Function Attrs: mustprogress uwtable
define noundef ptr @_ZN2c46detail11aalloc_implEmm(i64 noundef %0, i64 noundef %1) #1 {
  %3 = alloca ptr, align 8
  call void @llvm.lifetime.start.p0(i64 8, ptr nonnull %3) #39
  %4 = icmp ult i64 %1, 8
  br i1 %4, label %5, label %6, !prof !27

5:                                                ; preds = %2
  br label %6

6:                                                ; preds = %5, %2
  %.012 = phi i64 [ 8, %5 ], [ %1, %2 ]
  %7 = call i32 @posix_memalign(ptr noundef nonnull %3, i64 noundef %.012, i64 noundef %0) #39
  switch i32 %7, label %12 [
    i32 0, label %10
    i32 22, label %8
    i32 12, label %9
  ], !prof !30

8:                                                ; preds = %6
  call void (ptr, i32, ptr, ...) @_ZN2c412handle_errorENS_6srclocEPKcz(ptr nonnull @.str, i32 17355, ptr noundef nonnull @.str.4, i64 noundef %1)
  br label %12

9:                                                ; preds = %6
  call void (ptr, i32, ptr, ...) @_ZN2c412handle_errorENS_6srclocEPKcz(ptr nonnull @.str, i32 17360, ptr noundef nonnull @.str.5, i64 noundef %0, i64 noundef %0)
  br label %12

10:                                               ; preds = %6
  %11 = load ptr, ptr %3, align 8, !tbaa !31
  br label %12

12:                                               ; preds = %8, %9, %6, %10
  %.0 = phi ptr [ %11, %10 ], [ null, %6 ], [ null, %9 ], [ null, %8 ]
  call void @llvm.lifetime.end.p0(i64 8, ptr nonnull %3) #39
  ret ptr %.0
}